; ModuleID = '45/2634.c'
source_filename = "45/2634.c"
target datalayout = "e-m:e-p270:32:32-p271:32:32-p272:64:64-i64:64-f80:128-n8:16:32:64-S128"
target triple = "x86_64-pc-linux-gnu"

@la = common dso_local global i32 0, align 4
@a = common dso_local global [100 x i8] zeroinitializer, align 16
@b = common dso_local global [100 x i8] zeroinitializer, align 16
@lb = common dso_local global i32 0, align 4
@.str = private unnamed_addr constant [3 x i8] c"%d\00", align 1

; Function Attrs: noinline nounwind uwtable
define dso_local i32 @compare(i32 %0) #0 {
  %2 = alloca i32, align 4
  %3 = alloca i32, align 4
  %4 = alloca i32, align 4
  store i32 %0, i32* %3, align 4
  store i32 0, i32* %4, align 4
  br label %5

5:                                                ; preds = %25, %1
  %6 = load i32, i32* %4, align 4
  %7 = load i32, i32* @la, align 4
  %8 = icmp slt i32 %6, %7
  br i1 %8, label %9, label %28

9:                                                ; preds = %5
  %10 = load i32, i32* %4, align 4
  %11 = sext i32 %10 to i64
  %12 = getelementptr inbounds [100 x i8], [100 x i8]* @a, i64 0, i64 %11
  %13 = load i8, i8* %12, align 1
  %14 = sext i8 %13 to i32
  %15 = load i32, i32* %4, align 4
  %16 = load i32, i32* %3, align 4
  %17 = add nsw i32 %15, %16
  %18 = sext i32 %17 to i64
  %19 = getelementptr inbounds [100 x i8], [100 x i8]* @b, i64 0, i64 %18
  %20 = load i8, i8* %19, align 1
  %21 = sext i8 %20 to i32
  %22 = icmp ne i32 %14, %21
  br i1 %22, label %23, label %24

23:                                               ; preds = %9
  store i32 0, i32* %2, align 4
  br label %29

24:                                               ; preds = %9
  br label %25

25:                                               ; preds = %24
  %26 = load i32, i32* %4, align 4
  %27 = add nsw i32 %26, 1
  store i32 %27, i32* %4, align 4
  br label %5

28:                                               ; preds = %5
  store i32 1, i32* %2, align 4
  br label %29

29:                                               ; preds = %28, %23
  %30 = load i32, i32* %2, align 4
  ret i32 %30
}

; Function Attrs: noinline nounwind uwtable
define dso_local i32 @main() #0 {
  %1 = alloca i32, align 4
  %2 = alloca i32, align 4
  %3 = alloca i32, align 4
  %4 = alloca i32, align 4
  store i32 0, i32* %1, align 4
  store i32 0, i32* %2, align 4
  br label %5

5:                                                ; preds = %23, %0
  %6 = load i32, i32* %2, align 4
  %7 = icmp sle i32 %6, 99
  br i1 %7, label %8, label %26

8:                                                ; preds = %5
  %9 = call i32 @getchar()
  %10 = trunc i32 %9 to i8
  %11 = load i32, i32* %2, align 4
  %12 = sext i32 %11 to i64
  %13 = getelementptr inbounds [100 x i8], [100 x i8]* @a, i64 0, i64 %12
  store i8 %10, i8* %13, align 1
  %14 = load i32, i32* %2, align 4
  %15 = sext i32 %14 to i64
  %16 = getelementptr inbounds [100 x i8], [100 x i8]* @a, i64 0, i64 %15
  %17 = load i8, i8* %16, align 1
  %18 = sext i8 %17 to i32
  %19 = icmp eq i32 %18, 32
  br i1 %19, label %20, label %22

20:                                               ; preds = %8
  %21 = load i32, i32* %2, align 4
  store i32 %21, i32* @la, align 4
  br label %26

22:                                               ; preds = %8
  br label %23

23:                                               ; preds = %22
  %24 = load i32, i32* %2, align 4
  %25 = add nsw i32 %24, 1
  store i32 %25, i32* %2, align 4
  br label %5

26:                                               ; preds = %20, %5
  store i32 0, i32* %3, align 4
  br label %27

27:                                               ; preds = %45, %26
  %28 = load i32, i32* %3, align 4
  %29 = icmp sle i32 %28, 99
  br i1 %29, label %30, label %48

30:                                               ; preds = %27
  %31 = call i32 @getchar()
  %32 = trunc i32 %31 to i8
  %33 = load i32, i32* %3, align 4
  %34 = sext i32 %33 to i64
  %35 = getelementptr inbounds [100 x i8], [100 x i8]* @b, i64 0, i64 %34
  store i8 %32, i8* %35, align 1
  %36 = load i32, i32* %3, align 4
  %37 = sext i32 %36 to i64
  %38 = getelementptr inbounds [100 x i8], [100 x i8]* @b, i64 0, i64 %37
  %39 = load i8, i8* %38, align 1
  %40 = sext i8 %39 to i32
  %41 = icmp eq i32 %40, 10
  br i1 %41, label %42, label %44

42:                                               ; preds = %30
  %43 = load i32, i32* %3, align 4
  store i32 %43, i32* @lb, align 4
  br label %48

44:                                               ; preds = %30
  br label %45

45:                                               ; preds = %44
  %46 = load i32, i32* %3, align 4
  %47 = add nsw i32 %46, 1
  store i32 %47, i32* %3, align 4
  br label %27

48:                                               ; preds = %42, %27
  store i32 0, i32* %4, align 4
  br label %49

49:                                               ; preds = %63, %48
  %50 = load i32, i32* %4, align 4
  %51 = load i32, i32* @lb, align 4
  %52 = load i32, i32* @la, align 4
  %53 = sub nsw i32 %51, %52
  %54 = icmp sle i32 %50, %53
  br i1 %54, label %55, label %66

55:                                               ; preds = %49
  %56 = load i32, i32* %4, align 4
  %57 = call i32 @compare(i32 %56)
  %58 = icmp eq i32 %57, 1
  br i1 %58, label %59, label %62

59:                                               ; preds = %55
  %60 = load i32, i32* %4, align 4
  %61 = call i32 (i8*, ...) @printf(i8* getelementptr inbounds ([3 x i8], [3 x i8]* @.str, i64 0, i64 0), i32 %60)
  br label %66

62:                                               ; preds = %55
  br label %63

63:                                               ; preds = %62
  %64 = load i32, i32* %4, align 4
  %65 = add nsw i32 %64, 1
  store i32 %65, i32* %4, align 4
  br label %49

66:                                               ; preds = %59, %49
  ret i32 0
}

declare dso_local i32 @getchar() #1

declare dso_local i32 @printf(i8*, ...) #1


!llvm.module.flags = !{!0}
!llvm.ident = !{!1}

!0 = !{i32 1, !"wchar_size", i32 4}
!1 = !{!"clang version 10.0.0-4ubuntu1 "}
